target datalayout = "e-m:e-p270:32:32-p271:32:32-p272:64:64-i64:64-i128:128-f80:128-n8:16:32:64-S128"
target triple = "x86_64-pc-linux-gnu"

%struct._object = type { %union.anon, ptr }
%union.anon = type { i64 }
%struct.PyVarObject = type { %struct._object, i64 }
%struct._typeobject = type { %struct.PyVarObject, ptr, i64, i64, ptr, i64, ptr, ptr, ptr, ptr, ptr, ptr, ptr, ptr, ptr, ptr, ptr, ptr, ptr, i64, ptr, ptr, ptr, ptr, i64, ptr, ptr, ptr, ptr, ptr, ptr, ptr, ptr, ptr, i64, ptr, ptr, ptr, ptr, ptr, ptr, ptr, ptr, ptr, ptr, ptr, i32, ptr, ptr, i8, i16 }

@.str.183 = private unnamed_addr constant [33 x i8] c"../cpython/Programs/_testembed.c\00", align 1
@_audit_hook_clear_count = internal global i32 0, align 4
@.str.305 = private unnamed_addr constant [17 x i8] c"_testembed.raise\00", align 1
@.str.310 = private unnamed_addr constant [15 x i8] c"_testembed.set\00", align 1
@.str.311 = private unnamed_addr constant [2 x i8] c"n\00", align 1
@PyTuple_Type = external global %struct._typeobject, align 8
@.str.315 = private unnamed_addr constant [33 x i8] c"args && PyTuple_CheckExact(args)\00", align 1
@__PRETTY_FUNCTION__._audit_hook = private unnamed_addr constant [50 x i8] c"int _audit_hook(const char *, PyObject *, void *)\00", align 1
@PyExc_RuntimeError = external global ptr, align 8
@.str.316 = private unnamed_addr constant [18 x i8] c"Intentional error\00", align 1
@.str.317 = private unnamed_addr constant [31 x i8] c"cpython._PySys_ClearAuditHooks\00", align 1

; Function Attrs: inlinehint nounwind uwtable
define internal ptr @_Py_TYPE(ptr noundef %0) #10 {
  %2 = alloca ptr, align 8
  store ptr %0, ptr %2, align 8, !tbaa !80
  %3 = load ptr, ptr %2, align 8, !tbaa !80
  %4 = getelementptr inbounds nuw %struct._object, ptr %3, i32 0, i32 1
  %5 = load ptr, ptr %4, align 8, !tbaa !103
  ret ptr %5
}

; Function Attrs: inlinehint nounwind uwtable
define internal i32 @Py_IS_TYPE(ptr noundef %0, ptr noundef %1) #10 {
  %3 = alloca ptr, align 8
  %4 = alloca ptr, align 8
  store ptr %0, ptr %3, align 8, !tbaa !80
  store ptr %1, ptr %4, align 8, !tbaa !101
  %5 = load ptr, ptr %3, align 8, !tbaa !80
  %6 = call ptr @_Py_TYPE(ptr noundef %5)
  %7 = load ptr, ptr %4, align 8, !tbaa !101
  %8 = icmp eq ptr %6, %7
  %9 = zext i1 %8 to i32
  ret i32 %9
}

; Function Attrs: nounwind uwtable
define internal i32 @_audit_hook(ptr noundef %0, ptr noundef %1, ptr noundef %2) #0 {
  %4 = alloca i32, align 4
  %5 = alloca ptr, align 8
  %6 = alloca ptr, align 8
  %7 = alloca ptr, align 8
  store ptr %0, ptr %5, align 8, !tbaa !16
  store ptr %1, ptr %6, align 8, !tbaa !80
  store ptr %2, ptr %7, align 8, !tbaa !38
  %8 = load ptr, ptr %6, align 8, !tbaa !80
  %9 = icmp ne ptr %8, null
  br i1 %9, label %10, label %15

10:                                               ; preds = %3
  %11 = load ptr, ptr %6, align 8, !tbaa !80
  %12 = call i32 @Py_IS_TYPE(ptr noundef %11, ptr noundef @PyTuple_Type)
  %13 = icmp ne i32 %12, 0
  br i1 %13, label %14, label %15

14:                                               ; preds = %10
  br label %17

15:                                               ; preds = %10, %3
  call void @__assert_fail(ptr noundef @.str.315, ptr noundef @.str.183, i32 noundef 1292, ptr noundef @__PRETTY_FUNCTION__._audit_hook) #13
  unreachable

16:                                               ; No predecessors!
  br label %17

17:                                               ; preds = %16, %14
  %18 = load ptr, ptr %5, align 8, !tbaa !16
  %19 = call i32 @strcmp(ptr noundef %18, ptr noundef @.str.305) #12
  %20 = icmp eq i32 %19, 0
  br i1 %20, label %21, label %23

21:                                               ; preds = %17
  %22 = load ptr, ptr @PyExc_RuntimeError, align 8, !tbaa !80
  call void @PyErr_SetString(ptr noundef %22, ptr noundef @.str.316)
  store i32 -1, ptr %4, align 4
  br label %44

23:                                               ; preds = %17
  %24 = load ptr, ptr %5, align 8, !tbaa !16
  %25 = call i32 @strcmp(ptr noundef %24, ptr noundef @.str.310) #12
  %26 = icmp eq i32 %25, 0
  br i1 %26, label %27, label %34

27:                                               ; preds = %23
  %28 = load ptr, ptr %6, align 8, !tbaa !80
  %29 = load ptr, ptr %7, align 8, !tbaa !38
  %30 = call i32 (ptr, ptr, ...) @PyArg_ParseTuple(ptr noundef %28, ptr noundef @.str.311, ptr noundef %29)
  %31 = icmp ne i32 %30, 0
  br i1 %31, label %33, label %32

32:                                               ; preds = %27
  store i32 -1, ptr %4, align 4
  br label %44

33:                                               ; preds = %27
  store i32 0, ptr %4, align 4
  br label %44

34:                                               ; preds = %23
  %35 = load ptr, ptr %5, align 8, !tbaa !16
  %36 = call i32 @strcmp(ptr noundef %35, ptr noundef @.str.317) #12
  %37 = icmp eq i32 %36, 0
  br i1 %37, label %38, label %41

38:                                               ; preds = %34
  %39 = load i32, ptr @_audit_hook_clear_count, align 4, !tbaa !4
  %40 = add i32 %39, 1
  store i32 %40, ptr @_audit_hook_clear_count, align 4, !tbaa !4
  br label %41

41:                                               ; preds = %38, %34
  br label %42

42:                                               ; preds = %41
  br label %43

43:                                               ; preds = %42
  store i32 0, ptr %4, align 4
  br label %44

44:                                               ; preds = %43, %33, %32, %21
  %45 = load i32, ptr %4, align 4
  ret i32 %45
}