; Function Attrs: nounwind uwtable
define internal range(i32 -1, 1) i32 @_audit_hook(ptr noundef readonly captures(none) %0, ptr noundef %1, ptr noundef %2) #0 {
  %.not = icmp eq ptr %1, null
  br i1 %.not, label %6, label %4

4:                                                ; preds = %3
  %5 = getelementptr i8, ptr %1, i64 8
  %.val = load ptr, ptr %5, align 8, !tbaa !98
  %.not10 = icmp eq ptr %.val, @PyTuple_Type
  br i1 %.not10, label %7, label %6

6:                                                ; preds = %4, %3
  tail call void @__assert_fail(ptr noundef nonnull @.str.315, ptr noundef nonnull @.str.183, i32 noundef 1292, ptr noundef nonnull @__PRETTY_FUNCTION__._audit_hook) #24
  unreachable

7:                                                ; preds = %4
  %8 = tail call i32 @strcmp(ptr noundef nonnull dereferenceable(1) %0, ptr noundef nonnull dereferenceable(17) @.str.305) #19
  %9 = icmp eq i32 %8, 0
  br i1 %9, label %10, label %12

10:                                               ; preds = %7
  %11 = load ptr, ptr @PyExc_RuntimeError, align 8, !tbaa !84
  tail call void @PyErr_SetString(ptr noundef %11, ptr noundef nonnull @.str.316) #20
  br label %23

12:                                               ; preds = %7
  %13 = tail call i32 @strcmp(ptr noundef nonnull dereferenceable(1) %0, ptr noundef nonnull dereferenceable(15) @.str.310) #19
  %14 = icmp eq i32 %13, 0
  br i1 %14, label %15, label %17

15:                                               ; preds = %12
  %16 = tail call i32 (ptr, ptr, ...) @PyArg_ParseTuple(ptr noundef nonnull %1, ptr noundef nonnull @.str.311, ptr noundef %2) #20
  %.not9 = icmp eq i32 %16, 0
  %. = sext i1 %.not9 to i32
  br label %23

17:                                               ; preds = %12
  %18 = tail call i32 @strcmp(ptr noundef nonnull dereferenceable(1) %0, ptr noundef nonnull dereferenceable(31) @.str.317) #19
  %19 = icmp eq i32 %18, 0
  br i1 %19, label %20, label %23

20:                                               ; preds = %17
  %21 = load i32, ptr @_audit_hook_clear_count, align 4, !tbaa !4
  %22 = add i32 %21, 1
  store i32 %22, ptr @_audit_hook_clear_count, align 4, !tbaa !4
  br label %23

23:                                               ; preds = %17, %20, %15, %10
  %.0 = phi i32 [ -1, %10 ], [ %., %15 ], [ 0, %20 ], [ 0, %17 ]
  ret i32 %.0
}